; Function Attrs: mustprogress uwtable
define noundef i32 @_ZN3g2o8readLineERSiRNSt7__cxx1118basic_stringstreamIcSt11char_traitsIcESaIcEEE(ptr noundef nonnull align 8 dereferenceable(16) %0, ptr noundef nonnull align 8 dereferenceable(128) %1) local_unnamed_addr #3 personality ptr @__gxx_personality_v0 {
  %3 = alloca i8, align 1
  %4 = alloca %"class.std::__cxx11::basic_string", align 8
  %5 = alloca %"class.std::allocator", align 1
  %6 = alloca %"class.std::__cxx11::basic_string", align 8
  %7 = alloca %"class.std::__cxx11::basic_string", align 8
  %8 = load ptr, ptr %0, align 8
  %9 = getelementptr i8, ptr %8, i64 -24
  %10 = load i64, ptr %9, align 8
  %11 = getelementptr inbounds i8, ptr %0, i64 %10
  %12 = tail call noundef zeroext i1 @_ZNKSt9basic_iosIcSt11char_traitsIcEE3eofEv(ptr noundef nonnull align 8 dereferenceable(264) %11)
  br i1 %12, label %66, label %13

13:                                               ; preds = %2
  call void @_ZNSaIcEC1Ev(ptr noundef nonnull align 1 dereferenceable(1) %5) #16
  %14 = invoke noundef ptr @_ZNSt7__cxx1112basic_stringIcSt11char_traitsIcESaIcEE13_M_local_dataEv(ptr noundef nonnull align 8 dereferenceable(32) %4)
          to label %.noexc unwind label %34

.noexc:                                           ; preds = %13
  invoke void @_ZNSt7__cxx1112basic_stringIcSt11char_traitsIcESaIcEE12_Alloc_hiderC1EPcRKS3_(ptr noundef nonnull align 8 dereferenceable(8) %4, ptr noundef %14, ptr noundef nonnull align 1 dereferenceable(1) %5)
          to label %.noexc19 unwind label %34

.noexc19:                                         ; preds = %.noexc
  invoke void @_ZNSt7__cxx1112basic_stringIcSt11char_traitsIcESaIcEE12_M_constructIPKcEEvT_S8_St20forward_iterator_tag(ptr noundef nonnull align 8 dereferenceable(32) %4, ptr noundef nonnull @.str.1, ptr noundef nonnull @.str.1)
          to label %_ZNSt7__cxx1112basic_stringIcSt11char_traitsIcESaIcEEC2IS3_EEPKcRKS3_.exit unwind label %15

15:                                               ; preds = %.noexc19
  %16 = landingpad { ptr, i32 }
          cleanup
  call void @_ZNSaIcED2Ev(ptr noundef nonnull align 1 dereferenceable(1) %4) #16
  br label %.body

_ZNSt7__cxx1112basic_stringIcSt11char_traitsIcESaIcEEC2IS3_EEPKcRKS3_.exit: ; preds = %.noexc19
  invoke void @_ZNSt7__cxx1118basic_stringstreamIcSt11char_traitsIcESaIcEE3strERKNS_12basic_stringIcS2_S3_EE(ptr noundef nonnull align 8 dereferenceable(128) %1, ptr noundef nonnull align 8 dereferenceable(32) %4)
          to label %17 unwind label %36

17:                                               ; preds = %_ZNSt7__cxx1112basic_stringIcSt11char_traitsIcESaIcEEC2IS3_EEPKcRKS3_.exit
  call void @_ZNSt7__cxx1112basic_stringIcSt11char_traitsIcESaIcEED1Ev(ptr noundef nonnull align 8 dereferenceable(32) %4) #16
  call void @_ZNSaIcED1Ev(ptr noundef nonnull align 1 dereferenceable(1) %5) #16
  %18 = load ptr, ptr %1, align 8
  %19 = getelementptr i8, ptr %18, i64 -24
  %20 = load i64, ptr %19, align 8
  %21 = getelementptr inbounds i8, ptr %1, i64 %20
  call void @_ZNSt9basic_iosIcSt11char_traitsIcEE5clearESt12_Ios_Iostate(ptr noundef nonnull align 8 dereferenceable(264) %21, i32 noundef 0)
  %22 = call noundef ptr @_ZNKSt7__cxx1118basic_stringstreamIcSt11char_traitsIcESaIcEE5rdbufEv(ptr noundef nonnull align 8 dereferenceable(128) %1)
  %23 = call noundef nonnull align 8 dereferenceable(16) ptr @_ZNSi3getERSt15basic_streambufIcSt11char_traitsIcEE(ptr noundef nonnull align 8 dereferenceable(16) %0, ptr noundef nonnull align 8 dereferenceable(64) %22)
  %24 = load ptr, ptr %0, align 8
  %25 = getelementptr i8, ptr %24, i64 -24
  %26 = load i64, ptr %25, align 8
  %27 = getelementptr inbounds i8, ptr %0, i64 %26
  %28 = call noundef zeroext i1 @_ZNKSt9basic_iosIcSt11char_traitsIcEE4failEv(ptr noundef nonnull align 8 dereferenceable(264) %27)
  br i1 %28, label %29, label %38

29:                                               ; preds = %17
  %30 = load ptr, ptr %0, align 8
  %31 = getelementptr i8, ptr %30, i64 -24
  %32 = load i64, ptr %31, align 8
  %33 = getelementptr inbounds i8, ptr %0, i64 %32
  call void @_ZNSt9basic_iosIcSt11char_traitsIcEE5clearESt12_Ios_Iostate(ptr noundef nonnull align 8 dereferenceable(264) %33, i32 noundef 0)
  br label %38

34:                                               ; preds = %.noexc, %13
  %35 = landingpad { ptr, i32 }
          cleanup
  br label %.body

36:                                               ; preds = %_ZNSt7__cxx1112basic_stringIcSt11char_traitsIcESaIcEEC2IS3_EEPKcRKS3_.exit
  %37 = landingpad { ptr, i32 }
          cleanup
  call void @_ZNSt7__cxx1112basic_stringIcSt11char_traitsIcESaIcEED1Ev(ptr noundef nonnull align 8 dereferenceable(32) %4) #16
  br label %.body

.body:                                            ; preds = %34, %15, %36
  %.pn = phi { ptr, i32 } [ %37, %36 ], [ %35, %34 ], [ %16, %15 ]
  call void @_ZNSaIcED1Ev(ptr noundef nonnull align 1 dereferenceable(1) %5) #16
  br label %67

38:                                               ; preds = %29, %17
  call void @llvm.lifetime.start.p0(i64 1, ptr nonnull %3)
  store i8 32, ptr %3, align 1
  br label %39

39:                                               ; preds = %51, %38
  %40 = load ptr, ptr %0, align 8
  %41 = getelementptr i8, ptr %40, i64 -24
  %42 = load i64, ptr %41, align 8
  %43 = getelementptr inbounds i8, ptr %0, i64 %42
  %44 = call noundef zeroext i1 @_ZNKSt9basic_iosIcSt11char_traitsIcEE4goodEv(ptr noundef nonnull align 8 dereferenceable(264) %43)
  br i1 %44, label %45, label %_ZN3g2o8skipLineERSi.exit

45:                                               ; preds = %39
  %46 = load ptr, ptr %0, align 8
  %47 = getelementptr i8, ptr %46, i64 -24
  %48 = load i64, ptr %47, align 8
  %49 = getelementptr inbounds i8, ptr %0, i64 %48
  %50 = call noundef zeroext i1 @_ZNKSt9basic_iosIcSt11char_traitsIcEE3eofEv(ptr noundef nonnull align 8 dereferenceable(264) %49)
  br i1 %50, label %_ZN3g2o8skipLineERSi.exit, label %51

51:                                               ; preds = %45
  %52 = call noundef nonnull align 8 dereferenceable(16) ptr @_ZNSi3getERc(ptr noundef nonnull align 8 dereferenceable(16) %0, ptr noundef nonnull align 1 dereferenceable(1) %3)
  %.pr.i = load i8, ptr %3, align 1
  %.not.i = icmp eq i8 %.pr.i, 10
  br i1 %.not.i, label %_ZN3g2o8skipLineERSi.exit, label %39, !llvm.loop !10

_ZN3g2o8skipLineERSi.exit:                        ; preds = %39, %45, %51
  call void @llvm.lifetime.end.p0(i64 1, ptr nonnull %3)
  call void @_ZNKSt7__cxx1118basic_stringstreamIcSt11char_traitsIcESaIcEE3strEv(ptr dead_on_unwind nonnull writable sret(%"class.std::__cxx11::basic_string") align 8 %6, ptr noundef nonnull align 8 dereferenceable(128) %1)
  %53 = call noundef zeroext i1 @_ZNKSt7__cxx1112basic_stringIcSt11char_traitsIcESaIcEE5emptyEv(ptr noundef nonnull align 8 dereferenceable(32) %6) #16
  br i1 %53, label %54, label %.critedge

54:                                               ; preds = %_ZN3g2o8skipLineERSi.exit
  %55 = load ptr, ptr %0, align 8
  %56 = getelementptr i8, ptr %55, i64 -24
  %57 = load i64, ptr %56, align 8
  %58 = getelementptr inbounds i8, ptr %0, i64 %57
  %59 = invoke noundef zeroext i1 @_ZNKSt9basic_iosIcSt11char_traitsIcEE3eofEv(ptr noundef nonnull align 8 dereferenceable(264) %58)
          to label %60 unwind label %61

60:                                               ; preds = %54
  call void @_ZNSt7__cxx1112basic_stringIcSt11char_traitsIcESaIcEED1Ev(ptr noundef nonnull align 8 dereferenceable(32) %6) #16
  br i1 %59, label %66, label %63

61:                                               ; preds = %54
  %62 = landingpad { ptr, i32 }
          cleanup
  call void @_ZNSt7__cxx1112basic_stringIcSt11char_traitsIcESaIcEED1Ev(ptr noundef nonnull align 8 dereferenceable(32) %6) #16
  br label %67

.critedge:                                        ; preds = %_ZN3g2o8skipLineERSi.exit
  call void @_ZNSt7__cxx1112basic_stringIcSt11char_traitsIcESaIcEED1Ev(ptr noundef nonnull align 8 dereferenceable(32) %6) #16
  br label %63

63:                                               ; preds = %.critedge, %60
  call void @_ZNKSt7__cxx1118basic_stringstreamIcSt11char_traitsIcESaIcEE3strEv(ptr dead_on_unwind nonnull writable sret(%"class.std::__cxx11::basic_string") align 8 %7, ptr noundef nonnull align 8 dereferenceable(128) %1)
  %64 = call noundef i64 @_ZNKSt7__cxx1112basic_stringIcSt11char_traitsIcESaIcEE4sizeEv(ptr noundef nonnull align 8 dereferenceable(32) %7) #16
  %65 = trunc i64 %64 to i32
  call void @_ZNSt7__cxx1112basic_stringIcSt11char_traitsIcESaIcEED1Ev(ptr noundef nonnull align 8 dereferenceable(32) %7) #16
  br label %66

66:                                               ; preds = %60, %2, %63
  %.015 = phi i32 [ %65, %63 ], [ -1, %2 ], [ -1, %60 ]
  ret i32 %.015

67:                                               ; preds = %61, %.body
  %.pn17 = phi { ptr, i32 } [ %62, %61 ], [ %.pn, %.body ]
  resume { ptr, i32 } %.pn17
}